** EXPERIMENTAL (HLL) ** Open Watcom Linker Version 2.0.1
Portions Copyright (c) 1985-2002 Sybase, Inc. All Rights Reserved.
Created on:       26/07/03 13:08:58
Executable Image: PMBIDI.DLL
creating an OS/2 and ArcaOS dynamic link library


                        +------------+
                        |   Groups   |
                        +------------+

Group                           Address              Size
=====                           =======              ====

DGROUP                          0002:00000000        00000d00



                        +--------------+
                        |   Segments   |
                        +--------------+

Segment                Class          Group          Address         Size
=======                =====          =====          =======         ====

BEGTEXT                CODE           AUTO           0001:00000000   00000007
_TEXT                  CODE           AUTO           0001:00000010   000034c7
_NULL                  BEGDATA        DGROUP         0002:00000000   00000004
_AFTERNULL             BEGDATA        DGROUP         0002:00000004   00000000
CONST                  DATA           DGROUP         0002:00000004   000000d4
CONST2                 DATA           DGROUP         0002:000000d8   000002e4
_DATA                  DATA           DGROUP         0002:000003bc   00000100
TIB                    DATA           DGROUP         0002:000004bc   00000000
TI                     DATA           DGROUP         0002:000004bc   00000000
TIE                    DATA           DGROUP         0002:000004bc   00000000
XIB                    DATA           DGROUP         0002:000004bc   00000000
XI                     DATA           DGROUP         0002:000004bc   00000006
XIE                    DATA           DGROUP         0002:000004c2   00000000
YIB                    DATA           DGROUP         0002:000004c2   00000000
YI                     DATA           DGROUP         0002:000004c2   00000006
YIE                    DATA           DGROUP         0002:000004c8   00000000
DATA                   DATA           DGROUP         0002:000004c8   00000000
_BSS                   BSS            DGROUP         0002:000004c8   00000838
STACK                  STACK          DGROUP         0002:00000d00   00000000


                        +----------------+
                        |   Memory Map   |
                        +----------------+

* = unreferenced symbol
+ = symbol only referenced locally

Address        Symbol
=======        ======

Module: PMBIDI.OBJ(F:\Projects\cWarp\src\BIDI\PMBIDI\PMBIDI.C)
0002:000003bc  ulProcess_BidiAttr
0001:00000060  PMBIDI_Initialize
0001:000000e0  Win32SetLangInfo
0001:00000110  Win32QueryLangInfo
0001:00000140  WIN16SETKBDLAYER
0001:00000140  Win32SetKbdLayer
0001:00000150  Win32QueryKbdLayer
0001:00000170  WIN16SETLANGVIEWER
0001:00000170  Win32SetLangViewer
0001:00000180  Win32QueryLangViewer
0001:000001a0  WIN16SETPROCESSLANGINFO
0001:000001a0  WIN16SETLANGINFO
0001:000001a0  Win32SetProcessLangInfo
0001:000001b0  WIN16QUERYPROCESSLANGINFO
0001:000001b0  WIN16QUERYLANGINFO
0001:000001b0  Win32QueryProcessLangInfo
0001:000001c0  WIN16QUERYKBDLAYER
0001:000001d0  WIN16QUERYLANGVIEWER
0001:000001e0  Gpi32SetBidiAttr
0001:00000290  Gpi32QueryBidiAttr
0001:00000330  GPI16SETBIDIATTR
0001:00000350  GPI16QUERYBIDIATTR
0001:00000370  Bidi_QueryCp
0001:000003c0  BIDI_16QUERYCP
0001:000003d0  PMBIDI_Get_StdDlgLang_Setting
0001:00000420  PMBIDI_16GET_STDDLGLANG_SETTING
0001:00000430  PMBIDI_String_To_BinVal
0001:00000490  PMBIDI_BinVal_To_String
0001:00000510  PMBIDI_Keyword_To_BinVal
0001:00000530  PMBIDI_Get_HelpBidi_Setting
0001:00000580  Nls32ConvertBidiString
0001:00000610  Nls32EditShape
0001:000006a0  Nls32InverseString
0001:00000760  Nls32ShapeBidiString
0001:000007f0  Nls32ConvertBidiNumerics
0001:00000880  NLS16CONVERTBIDISTRING
0001:000008a0  NLS16EDITSHAPE
0001:000008c0  NLS16INVERSESTRING
0001:000008e0  NLS16SHAPEBIDISTRING
0001:00000900  NLS16CONVERTBIDINUMERICS
0001:00000920  layout_object_create
0001:00000980  layout_object_destroy
0001:000009b0  layout_object_transform
0001:00000a30  layout_object_editshape
0001:00000b00  layout_object_setvalues
0001:00000c30  layout_object_getvalues
0001:00000cf0  PMBIDI_CpTranslateString
0001:00000e00  PMBIDI_16CP_TRANSLATE_STRING
0001:00000e30  Bidi_MapSrcToTrg
0001:00000ed0  Bidi_ClassifyCodepage
0001:00000f10  Bidi_IsStringBidi
0001:00000f80  Bidi_IsStringAllBidi
0001:00000fd0  Bidi_ReverseString
0001:00001020  Bidi_LayoutConvert
0001:00001090  Bidi_LayoutEdit
0001:000010f0  LibMain
Module: C:\WATCOM/lib386/os2\clib3s.lib(memset.c)
0001:00001170  memset
Module: C:\WATCOM/lib386/os2\clib3s.lib(_strcmp)
0001:00001190  strcmp
Module: C:\WATCOM/lib386/os2\clib3s.lib(dstrt386)
0001:000012d4  __DLLstart_
0001:000012d4* __DLLstartw_
Module: C:\WATCOM/lib386/os2\clib3s.lib(__stos)
0001:00001330  __STOSB
0001:00001367* __STOSD
Module: C:\WATCOM/lib386/os2\clib3s.lib(dmaino32.c)
0001:000013d3  __LibMain
Module: C:\WATCOM/lib386/os2\clib3s.lib(segdefns)
0001:00000003  ___begtext
0002:00000000* __nullarea
0002:000004bc  _Start_XI
0002:000004c2  _End_XI
0002:000004c2  _Start_YI
0002:000004c8  _End_YI
Module: C:\WATCOM/lib386/os2\clib3s.lib(crwdata)
0002:00000432  _osmajor
0002:00000433  _osminor
0002:00000400  _LpDllName
0002:00000404  _LpwCmdLine
0002:00000408  _LpwPgmName
0002:0000040c  _LpwDllName
0002:000003f8  _LpCmdLine
0002:000003fc  _LpPgmName
0002:000003f0* _dynend
0002:000003f4  _curbrk
0002:00000410* _STACKLOW
0002:00000414* _STACKTOP
0002:00000418  __ASTACKSIZ
0002:0000041c  __ASTACKPTR
0002:00000420* _cbyte
0002:00000424* _cbyte2
0002:00000428* _child
0002:0000042e  _Envptr
0002:0000042c  __no87
0002:00000434* __FPE_handler
Module: C:\WATCOM/lib386/os2\clib3s.lib(nfree.c)
0001:00001620  free
0001:00001630  _nfree
0002:000007d8  __MiniHeapFreeRover
Module: C:\WATCOM/lib386/os2\clib3s.lib(initrtns.c)
0001:00001750  __InitRtns
0001:000017b0  __FiniRtns
Module: C:\WATCOM/lib386/os2\clib3s.lib(maino32.c)
0002:00000438  __FirstThreadData
0002:0000043c  __GetThreadPtr
0002:00000440  _AccessFileH
0002:00000444  _ReleaseFileH
0002:00000448  _AccessIOB
0002:0000044c  _ReleaseIOB
0002:00000450  _AccessNHeap
0002:00000454  _AccessFHeap
0002:00000458  _ReleaseNHeap
0002:0000045c  _ReleaseFHeap
0002:00000460  _AccessTDList
0001:0000181e  __threadstack
0001:00001825  __threadid
0001:0000182c* __OS2MainInit
0001:0000189d  __OS2Init
0001:000018de  __OS2Fini
0001:000018e6  __shutdown_stack_checking
0001:000018fb  __exit
0002:00000464  _ReleaseTDList
0002:00000468  __sig_init_rtn
0002:0000046c  __sig_fini_rtn
0002:00000470  __threadstksize
0002:00000474+ __process_fini
0002:000007dc  __Is_DLL
0002:000007e0+ __saved_CS
Module: C:\WATCOM/lib386/os2\clib3s.lib(mthread.c)
0001:00001990+ __CloseSemaphore
0001:000019c0+ __AccessSemaphore
0001:00001a30+ __ReleaseSemaphore
0001:00001a90+ __AccessIOB
0001:00001aa0+ __ReleaseIOB
0001:00001ab0+ __AccessFileH
0001:00001ad0+ __ReleaseFileH
0001:00001af0+ __AccessNHeap
0001:00001b00+ __ReleaseNHeap
0001:00001b10+ __AccessFHeap
0001:00001b20+ __ReleaseFHeap
0001:00001b30+ __AccessTDList
0001:00001b40+ __ReleaseTDList
0001:00001b50+ __MultipleThread
0001:00001b90  __AllocInitThreadData
0001:00001be0  __FreeInitThreadData
0001:00001c00  __OS2AddThread
0001:00001c80  __OS2RemoveThread
0001:00001cd0  __InitMultipleThread
0002:00000478+ __AccessSema4
0002:0000047c+ __ReleaseSema4
0002:00000480+ __CloseSema4
Module: C:\WATCOM/lib386/os2\clib3s.lib(ddgrpo32.c)
0001:00001f40  __disallow_single_dgroup
Module: C:\WATCOM/lib386/os2\clib3s.lib(cinit.c)
0001:00002190  __CommonInit
0002:00000cf0  __hmodule
Module: C:\WATCOM/lib386/os2\clib3s.lib(nmalloc.c)
0001:000021a0+ _use_os2_high_mem
0001:000021c0* _os2lmalloc
0001:00002200* _os2hmalloc
0001:00002240  malloc
0001:00002250  _nmalloc
0002:00000484  __nheapbeg
0002:00000488  __MiniHeapRover
0002:0000048c  __LargestSizeB4MiniHeapRover
0002:00000cf4  _os2_use_obj_any
Module: C:\WATCOM/lib386/os2\clib3s.lib(atouni.c)
0001:000023a0  _atouni
Module: C:\WATCOM/lib386/os2\clib3s.lib(trdalloc.c)
0001:000023e0  __InitThreadProcessing
0001:00002400  __FiniThreadProcessing
0002:00000cf8  __ThreadData
Module: C:\WATCOM/lib386/os2\clib3s.lib(maxthrds.c)
0002:00000490  __MaxThreads
Module: C:\WATCOM/lib386/os2\clib3s.lib(dosseg)
0000:00001234  __DOSseg__
Module: C:\WATCOM/lib386/os2\clib3s.lib(mem.c)
0001:00002460  __MemAllocator
0001:00002510  __MemFree
Module: C:\WATCOM/lib386/os2\clib3s.lib(xmsgo32.c)
0001:00002650+ __exit_with_msg
0001:000026a0  __fatal_runtime_error
Module: C:\WATCOM/lib386/os2\clib3s.lib(trdlist.c)
0001:00002720  __GetThreadData
0001:00002850  __ReallocThreadData
0001:000029c0  __AddThreadData
0001:00002a40  __RemoveThreadData
0001:00002aa0* __ResizeThreadDataList
0001:00002af0  __FreeThreadDataList
0001:00002b30* __ActiveThreads
Module: C:\WATCOM/lib386/os2\clib3s.lib(mthrdini.c)
0001:00002b50  __InitThreadData
0002:00000494  __ThreadDataSize
Module: C:\WATCOM/lib386/os2\clib3s.lib(calloc.c)
0001:00002b70  calloc
Module: C:\WATCOM/lib386/os2\clib3s.lib(register.c)
0001:00002bb0  __initthread
0001:00002bc0* _beginthread
0001:00002be0  _endthread
0001:00002bf0* __RegisterThreadData
Module: C:\WATCOM/lib386/os2\clib3s.lib(nheapmin.c)
0001:00002c40  _nheapshrink
0001:00002c40* _nheapmin
0001:00002c40* _heapmin
0001:00002c40  _heapshrink
Module: C:\WATCOM/lib386/os2\clib3s.lib(amblksiz.c)
0002:000004a4  _amblksiz
Module: C:\WATCOM/lib386/os2\clib3s.lib(grownear.c)
0001:00002f10  __ExpandDGROUP
0002:000004a8  _os2_obj_any_supported
Module: C:\WATCOM/lib386/os2\clib3s.lib(nmemneed.c)
0001:00002f30  __nmemneed
Module: C:\WATCOM/lib386/os2\clib3s.lib(thrdmax.c)
0001:00002f40  __GETMAXTHREADS
Module: C:\WATCOM/lib386/os2\clib3s.lib(enterdb.c)
0001:00002f50  __EnterWVIDEO
0002:000004ac+ __WD_Present
Module: C:\WATCOM/lib386/os2\clib3s.lib(nrealloc.c)
0001:00002f80  realloc
0001:00002fa0+ _nrealloc
Module: C:\WATCOM/lib386/os2\clib3s.lib(thredo32.c)
0001:00003120  __CBeginThread
0001:000031d0  __CEndThread
Module: C:\WATCOM/lib386/os2\clib3s.lib(heapen.c)
0002:000004b0  __heap_enabled
Module: C:\WATCOM/lib386/os2\clib3s.lib(nmsize.c)
0001:000031f0  _nmsize
0001:000031f0* _msize
Module: C:\WATCOM/lib386/os2\clib3s.lib(nexpand.c)
0001:00003200* _expand
0001:00003220+ __HeapManager_expand
0001:000033e0  _nexpand
Module: C:\WATCOM/lib386/os2\clib3s.lib(chk8087.c)
0001:00003430  _fpreset
0001:00003450* __init_8087
0001:00003460  __chk8087
Module: C:\WATCOM/lib386/os2\clib3s.lib(_8087)
0002:000004b4  __8087
0002:000004b5  __real87
Module: C:\WATCOM/lib386/os2\clib3s.lib(8087cw.c)
0002:000004b8  __8087cw
Module: C:\WATCOM/lib386/os2\clib3s.lib(init8087)
0001:000034a4  __x87id


                        +----------------------+
                        |   Imported Symbols   |
                        +----------------------+

Symbol                              Module
======                              ======

DosLoadModule                       DOSCALLS
PrfQueryProfileData                 PMSHAPI
DosQueryModuleHandle                DOSCALLS
DosQueryProcAddr                    DOSCALLS
DosQueryCp                          DOSCALLS
DosAllocMem                         DOSCALLS
DosFreeMem                          DOSCALLS
DosFreeModule                       DOSCALLS
DosGetInfoBlocks                    DOSCALLS
DosQueryModuleName                  DOSCALLS
DosQuerySysInfo                     DOSCALLS
DosExit                             DOSCALLS
DosCloseMutexSem                    DOSCALLS
DosCreateMutexSem                   DOSCALLS
DosRequestMutexSem                  DOSCALLS
DosReleaseMutexSem                  DOSCALLS
DosOpen                             DOSCALLS
DosWrite                            DOSCALLS
DosClose                            DOSCALLS
DosPostEventSem                     DOSCALLS
DosCreateEventSem                   DOSCALLS
DosCreateThread                     DOSCALLS
DosCloseEventSem                    DOSCALLS
DosWaitEventSem                     DOSCALLS
DosDevConfig                        DOSCALLS


                        +--------------------+
                        |   Libraries Used   |
                        +--------------------+

C:\WATCOM/lib386/os2\clib3s.lib
C:\WATCOM/lib386/os2\os2386.lib


                        +-----------------------+
                        |   Linker Statistics   |
                        +-----------------------+

Stack size:  0000 (0.)
Memory size:  41d7 (16855.)
Link time: 00:01.19
