** EXPERIMENTAL (HLL) ** Open Watcom Linker Version 2.0.1
Portions Copyright (c) 1985-2002 Sybase, Inc. All Rights Reserved.
Created on:       26/07/04 21:22:15
Executable Image: PMSPL.DLL
creating an OS/2 32-bit dynamic link library


                        +------------+
                        |   Groups   |
                        +------------+

Group                           Address              Size
=====                           =======              ====

DGROUP                          0002:00000000        00000930



                        +--------------+
                        |   Segments   |
                        +--------------+

Segment                Class          Group          Address         Size
=======                =====          =====          =======         ====

BEGTEXT                CODE           AUTO           0001:00000000   00000007
_TEXT                  CODE           AUTO           0001:00000010   00004343
_NULL                  BEGDATA        DGROUP         0002:00000000   00000004
_AFTERNULL             BEGDATA        DGROUP         0002:00000004   00000000
CONST                  DATA           DGROUP         0002:00000004   00000000
CONST2                 DATA           DGROUP         0002:00000004   00000000
_DATA                  DATA           DGROUP         0002:00000004   000000e0
XIB                    DATA           DGROUP         0002:000000e4   00000000
XI                     DATA           DGROUP         0002:000000e4   0000000c
XIE                    DATA           DGROUP         0002:000000f0   00000000
YIB                    DATA           DGROUP         0002:000000f0   00000000
YI                     DATA           DGROUP         0002:000000f0   00000006
YIE                    DATA           DGROUP         0002:000000f6   00000000
TIB                    DATA           DGROUP         0002:000000f6   00000000
TI                     DATA           DGROUP         0002:000000f6   00000000
TIE                    DATA           DGROUP         0002:000000f6   00000000
DATA                   DATA           DGROUP         0002:000000f6   00000000
_BSS                   BSS            DGROUP         0002:000000f8   00000838
STACK                  STACK          DGROUP         0002:00000930   00000000


                        +----------------+
                        |   Memory Map   |
                        +----------------+

* = unreferenced symbol
+ = symbol only referenced locally

Address        Symbol
=======        ======

Module: PMSPL.OBJ(E:\Projects\EXPERIMENT\Spooler\pmspl\pmspl.c)
0001:00000010* _DLL_InitTerm
0001:00000035  SPLQMOPEN
0001:0000005a  SPLQMSTARTDOC
0001:0000007f  SPLQMENDDOC
0001:000000a4  SPLQMWRITE
0001:000000c9  SPLQMABORT
0001:000000ee  SPLQMCLOSE
0001:00000113  SPLMESSAGEBOX
0001:00000138  SPLQMABORTDOC
0001:0000015d  SPLQMSPOOLERPRESENT
0001:00000182  SPLQMCHOOSELOGADDR
0001:000001a7  SPLQMINITIALIZE
0001:000001cc  SPLQMTERMINATE
0001:000001f1  SPLPRMSPOOL
0001:00000216  SPLQMCANCELWAITINGJOBS
0001:0000023b  SPLQMCANCELPRINTINGJOB
0001:00000260  SPLVQIFINIT
0001:00000285  SPLINIT
0001:000002aa  SPLQMLISTQUEUES
0001:000002cf  SPLQMQUERYQINFO
0001:000002f4  SPLQMLISTJOBS
0001:00000319  SPLQMQUERYJINFO
0001:0000033e  SPLQMHOLDQUEUE
0001:00000363  SPLQMRELEASEQUEUE
0001:00000388  SPLQMHOLDJOB
0001:000003ad  SPLQMRELEASEJOB
0001:000003d2  SPLQMCANCELJOB
0001:000003f7  SPLQMRESTARTJOB
0001:0000041c  SPLQMREPEATJOB
0001:00000441  SPLQMPRINTJOBNEXT
0001:00000466  SPLQMQUERYPINFO
0001:0000048b  SPLQMCHANGEJOBPRTY
0001:000004b0  SPLQMWRITEFILE
0001:000004d5  SPLQMSETSTATUS
0001:000004fa  SPLSTDOPEN
0001:0000051f  SPLSTDCLOSE
0001:00000544  SPLSTDSTART
0001:00000569  SPLSTDSTOP
0001:0000058e  SPLSTDDELETE
0001:000005b3  SPLSTDGETBITS
0001:000005d8  SPLSTDQUERYLENGTH
0001:000005fd  PRTOPEN
0001:00000622  PRTWRITE
0001:00000647  PRTDEVIOCTL
0001:0000066c  PRTCLOSE
0001:00000691  PRTABORT
0001:000006b6  PRT16QUERY
0001:000006db  PRT16SET
0001:00000700  PRT16ABORTDOC
0001:00000725  PRT16RESETABORT
0001:0000074a  DOSPRINTDESTCONTROL
0001:0000076f  DOSPRINTDESTGETINFO
0001:00000794  DOSPRINTDESTENUM
0001:000007b9  DOSPRINTJOBCONTINUE
0001:000007de  DOSPRINTJOBPAUSE
0001:00000803  DOSPRINTJOBDEL
0001:00000828  DOSPRINTJOBSCHEDULE
0001:0000084d  DOSPRINTJOBADD
0001:00000872  DOSPRINTJOBADD2
0001:00000897  DOSPRINTJOBGETINFO
0001:000008bc  DOSPRINTJOBSETINFO
0001:000008e1  DOSPRINTJOBENUM
0001:00000906  DOSPRINTQADD
0001:0000092b  DOSPRINTQPAUSE
0001:00000950  DOSPRINTQCONTINUE
0001:00000975  DOSPRINTQDEL
0001:0000099a  DOSPRINTQGETINFO
0001:000009bf  DOSPRINTQSETINFO
0001:000009e4  DOSPRINTQENUM
0001:00000a09  DOSPRINTDESTADD
0001:00000a2e  DOSPRINTDESTSETINFO
0001:00000a53  DOSPRINTDESTDEL
0001:00000a78  DOSPRINTQPURGE
0001:00000a9d  DOSPRINTJOBGETID
0001:00000ac2  DOSPRINTDRIVERENUM
0001:00000ae7  DOSPRINTQPROCESSORENUM
0001:00000b0c  DOSPRINTPORTENUM
0001:00000b31  WPRINTDESTCONTROL
0001:00000b56  WPRINTDESTGETINFO
0001:00000b7b  WPRINTDESTENUM
0001:00000ba0  WPRINTJOBCONTINUE
0001:00000bc5  WPRINTJOBPAUSE
0001:00000bea  WPRINTJOBDEL
0001:00000c0f  WPRINTJOBGETINFO
0001:00000c34  WPRINTJOBSETINFO
0001:00000c59  WPRINTJOBENUM
0001:00000c7e  WPRINTQADD
0001:00000ca3  WPRINTQPAUSE
0001:00000cc8  WPRINTQCONTINUE
0001:00000ced  WPRINTQDEL
0001:00000d12  WPRINTQGETINFO
0001:00000d37  WPRINTQSETINFO
0001:00000d5c  WPRINTQENUM
0001:00000d81  WPRINTDESTADD
0001:00000da6  WPRINTDESTSETINFO
0001:00000dcb  WPRINTDESTDEL
0001:00000df0  WPRINTQPURGE
0001:00000e15  WPRINTDRIVERENUM
0001:00000e3a  WPRINTQPROCESSORENUM
0001:00000e5f  WPRINTPORTENUM
0001:00000e84  WPRINTJOBCOPY
0001:00000ea9  WPRINTDRIVERGETINFO
0001:00000ece  WPRINTDRIVERSETINFO
0001:00000ef3  WPRINTJOBMOVE
0001:00000f18  WPRINTJOBMOVEALL
0001:00000f3d  WPRT16SET
0001:00000f62  SPL32PROFILEWRITECHECK
0001:00000f87  SPL32QMOPEN
0001:00000fac  SPL32QMSTARTDOC
0001:00000fd1  SPL32QMENDDOC
0001:00000ff6  SPL32QMWRITE
0001:0000101b  SPL32QMABORT
0001:00001040  SPL32QMCLOSE
0001:00001065  SPL32MESSAGEBOX
0001:0000108a  SPL32QMABORTDOC
0001:000010af  SPL32QMSPOOLERPRESENT
0001:000010d4  SPL32QMCHOOSELOGADDR
0001:000010f9  SPL32QMINITIALIZE
0001:0000111e  SPL32QMTERMINATE
0001:00001143  SPL32PRMSPOOL
0001:00001168  SPL32QMCANCELWAITINGJOBS
0001:0000118d  SPL32QMCANCELPRINTINGJOB
0001:000011b2  SPL32VQIFINIT
0001:000011d7  SPL32INIT
0001:000011fc  SPL32STDOPEN
0001:00001221  SPL32STDCLOSE
0001:00001246  SPL32STDSTART
0001:0000126b  SPL32STDSTOP
0001:00001290  SPL32STDDELETE
0001:000012b5  SPL32STDGETBITS
0001:000012da  SPL32STDQUERYLENGTH
0001:000012ff  PRT32OPEN
0001:00001324  PRT32WRITE
0001:00001349  PRT32DEVIOCTL
0001:0000136e  PRT32CLOSE
0001:00001393  PRT32ABORT
0001:000013b8  SPLCONTROLDEVICE
0001:000013dd  SPLQUERYDEVICE
0001:00001402  SPLENUMDEVICE
0001:00001427  SPLRELEASEJOB
0001:0000144c  SPLHOLDJOB
0001:00001471  SPLDELETEJOB
0001:00001496  SPLQUERYJOB
0001:000014bb  SPLSETJOB
0001:000014e0  SPLENUMJOB
0001:00001505  SPLCREATEQUEUE
0001:0000152a  SPLHOLDQUEUE
0001:0000154f  SPLRELEASEQUEUE
0001:00001574  SPLDELETEQUEUE
0001:00001599  SPLQUERYQUEUE
0001:000015be  SPLSETQUEUE
0001:000015e3  SPLENUMQUEUE
0001:00001608  SPLCREATEDEVICE
0001:0000162d  SPLSETDEVICE
0001:00001652  SPLDELETEDEVICE
0001:00001677  SPLPURGEQUEUE
0001:0000169c  SPLENUMDRIVER
0001:000016c1  SPLENUMQUEUEPROCESSOR
0001:000016e6  SPLENUMPORT
0001:0000170b  SPLQUERYPORT
0001:00001730  SPLSETPORT
0001:00001755  SPLQUERYPATH
0001:0000177a  SPLCREATEPORT
0001:0000179f  SPLDELETEPORT
0001:000017c4  SPL32QMQUERYPRINTRES
0001:000017e9  SPLENUMPRINTER
0001:0000180e  SPLCOPYJOB
0001:00001833  SPLQMSETUP
0001:00001858  SPLQUERYJOBFILE
0001:0000187d  SPLRENAMEQUEUE
0001:000018a2  SPLQUERYDRIVER
0001:000018c7  SPLSETDRIVER
0001:000018ec  SPLMOVEJOB
0001:00001911  SPLMOVEALLJOBS
0001:00001936  SPLTHKCONTROLDEVICE
0001:0000195b  SPLTHKQUERYDEVICE
0001:00001980  SPLTHKENUMDEVICE
0001:000019a5  SPLTHKRELEASEJOB
0001:000019ca  SPLTHKHOLDJOB
0001:000019ef  SPLTHKDELETEJOB
0001:00001a14  SPLTHKQUERYJOB
0001:00001a39  SPLTHKSETJOB
0001:00001a5e  SPLTHKENUMJOB
0001:00001a83  SPLTHKCREATEQUEUE
0001:00001aa8  SPLTHKHOLDQUEUE
0001:00001acd  SPLTHKRELEASEQUEUE
0001:00001af2  SPLTHKDELETEQUEUE
0001:00001b17  SPLTHKQUERYQUEUE
0001:00001b3c  SPLTHKSETQUEUE
0001:00001b61  SPLTHKENUMQUEUE
0001:00001b86  SPLTHKCREATEDEVICE
0001:00001bab  SPLTHKSETDEVICE
0001:00001bd0  SPLTHKDELETEDEVICE
0001:00001bf5  SPLTHKPURGEQUEUE
0001:00001c1a  SPLTHKENUMDRIVER
0001:00001c3f  SPLTHKENUMQUEUEPROCESSOR
0001:00001c64  SPLTHKENUMPORT
0001:00001c89  SPLTHKCOPYJOB
0001:00001cae  SPLTHKQUERYDRIVER
0001:00001cd3  SPLTHKSETDRIVER
0001:00001cf8  SPLTHKMOVEJOB
0001:00001d1d  SPLTHKMOVEALLJOBS
0001:00001d42  NETSPLQMOPEN
0001:00001d67  NETSPLQMSTARTDOC
0001:00001d8c  NETSPLQMWRITE
0001:00001db1  NETSPLQMENDDOC
0001:00001dd6  NETSPLQMCLOSE
0001:00001dfb  NETSPLQMABORT
0001:00001e20  NETSPLQMABORTDOC
0001:00001e45  PRTRESETABORT
0001:00001e6a  PRTABORTDOC
0001:00001e8f  PRTNEWPAGE
0001:00001eb4  PRTQUERY
0001:00001ed9  PRTSET
0001:00001efe  SPLPROTSENDCMD
0001:00001f23  SPLPROTXLATECMD
0001:00001f48  SPLQMNEWPAGE
0001:00001f6d  SPLQMGETJOBID
0001:00001f92  SPLALERT
0001:00001fb7  SPLDISABLE
0001:00001fdc  SPLENABLE
0001:00002001  SPLREGISTER
0001:00002026  SPLUNREGISTER
0001:0000204b  SPLREGISTERCONTROLPANEL
0001:00002070  SPLQUERYCONTROLPANEL
0001:00002095  SPLDISPLAYCONTROLPANEL
0001:000020ba  SPLGETPORTFROMQ
0001:000020df  SPLGETCONTROLPANELLIST
0001:00002104  SPLPRINTEROPEN
0001:00002129  SPLNOTIFYLOGON
0001:0000214e  SPLPRINTERCLOSE
0001:00002173  SPLPRINTERWRITE
0001:00002198  SPLPRINTERPRINTFILE
0001:000021bd  SPLSYNCHDRIVERS
Module: C:\WATCOM/lib386/os2\clib3r.lib(stk)
0001:000021f5* __STK
0001:000021e5  __CHK
0001:00002224* __GRO
0001:00002214* __STKOVERFLOW_
Module: C:\WATCOM/lib386/os2\clib3r.lib(dstrt386)
0001:00002244  __DLLstart_
0001:00002244* __DLLstartw_
Module: C:\WATCOM/lib386/os2\clib3r.lib(xmsgo32.c)
0001:000022a0+ __exit_with_msg_
0001:000022f0  __fatal_runtime_error_
Module: C:\WATCOM/lib386/os2\clib3r.lib(maino32.c)
0002:00000014  ___FirstThreadData
0002:00000018  ___GetThreadPtr
0002:0000001c  __AccessFileH
0002:00000020  __ReleaseFileH
0002:00000024  __AccessIOB
0002:00000028  __ReleaseIOB
0002:0000002c  __AccessNHeap
0002:00000030  __AccessFHeap
0002:00000034  __ReleaseNHeap
0002:00000038  __ReleaseFHeap
0001:00002316  __threadstack_
0001:0000231d  __threadid_
0001:00002324* __OS2MainInit_
0001:00002393  __OS2Init_
0001:000023d1  __OS2Fini_
0001:000023d9  __shutdown_stack_checking_
0001:000023ee  __exit_
0002:0000003c  __AccessTDList
0002:00000040  __ReleaseTDList
0002:00000044  ___sig_init_rtn
0002:00000048  ___sig_fini_rtn
0002:0000004c  __threadstksize
0002:00000050+ ___process_fini
0002:000000f8  ___Is_DLL
0002:000000fc+ ___saved_CS
Module: C:\WATCOM/lib386/os2\clib3r.lib(dmaino32.c)
0001:00002432  __LibMain
Module: C:\WATCOM/lib386/os2\clib3r.lib(segdefns)
0001:00000003  ___begtext
0002:00000000* __nullarea
0002:000000e4  __Start_XI
0002:000000f0  __End_XI
0002:000000f0  __Start_YI
0002:000000f6  __End_YI
Module: C:\WATCOM/lib386/os2\clib3r.lib(enterdb.c)
0001:00002650  __EnterWVIDEO_
0002:00000054+ ___WD_Present
Module: C:\WATCOM/lib386/os2\clib3r.lib(crwdata)
0002:0000009a  __osmajor
0002:0000009b  __osminor
0002:00000068  __LpDllName
0002:0000006c  __LpwCmdLine
0002:00000070  __LpwPgmName
0002:00000074  __LpwDllName
0002:00000060  __LpCmdLine
0002:00000064  __LpPgmName
0002:00000058* __dynend
0002:0000005c  __curbrk
0002:00000078* __STACKLOW
0002:0000007c* __STACKTOP
0002:00000080  __ASTACKSIZ
0002:00000084  __ASTACKPTR
0002:00000088* __cbyte
0002:0000008c* __cbyte2
0002:00000090* __child
0002:00000096  __Envptr
0002:00000094  __no87
0002:0000009c* ___FPE_handler
Module: C:\WATCOM/lib386/os2\clib3r.lib(cinit.c)
0001:00002680  __CommonInit_
0002:00000510  ___hmodule
Module: C:\WATCOM/lib386/os2\clib3r.lib(initrtns.c)
0001:000026a0  __InitRtns
0001:000026f0  __FiniRtns
Module: C:\WATCOM/lib386/os2\clib3r.lib(lmaino32.c)
0001:00002750  LibMain
Module: C:\WATCOM/lib386/os2\clib3r.lib(nfree.c)
0001:00002770  _nfree_
0001:00002770  free_
0002:00000514  ___MiniHeapFreeRover
Module: C:\WATCOM/lib386/os2\clib3r.lib(mthread.c)
0001:000028c0+ __CloseSemaphore_
0001:00002930+ __AccessIOB_
0001:00002940+ __ReleaseIOB_
0001:00002950+ __AccessFileH_
0001:00002960+ __ReleaseFileH_
0001:00002970+ __AccessNHeap_
0001:00002980+ __ReleaseNHeap_
0001:00002990+ __AccessFHeap_
0001:000029a0+ __ReleaseFHeap_
0001:000029b0+ __AccessTDList_
0001:000029c0+ __AccessSemaphore_
0001:00002a20+ __ReleaseTDList_
0001:00002a30+ __ReleaseSemaphore_
0001:00002a60+ __MultipleThread_
0001:00002aa0  __AllocInitThreadData_
0001:00002af0  __FreeInitThreadData_
0001:00002b00  __OS2AddThread_
0001:00002b70  __OS2RemoveThread_
0001:00002bc0  __InitMultipleThread_
0002:000000a0+ ___AccessSema4
0002:000000a4+ ___ReleaseSema4
0002:000000a8+ ___CloseSema4
Module: C:\WATCOM/lib386/os2\clib3r.lib(ddgrpo32.c)
0001:00002e20  __disallow_single_dgroup_
Module: C:\WATCOM/lib386/os2\clib3r.lib(nmalloc.c)
0001:00003070+ _use_os2_high_mem_
0001:000030a0* _os2lmalloc_
0001:000030d0* _os2hmalloc_
0001:00003110  _nmalloc_
0001:00003110  malloc_
0002:000000ac  ___nheapbeg
0002:000000b0  ___MiniHeapRover
0002:000000b4  ___LargestSizeB4MiniHeapRover
0002:00000924  __os2_use_obj_any
Module: C:\WATCOM/lib386/os2\clib3r.lib(atouni.c)
0001:00003250  _atouni_
Module: C:\WATCOM/lib386/os2\clib3r.lib(trdalloc.c)
0001:00003290  __InitThreadProcessing_
0001:000032b0  __FiniThreadProcessing_
0002:00000928  ___ThreadData
Module: C:\WATCOM/lib386/os2\clib3r.lib(maxthrds.c)
0002:000000b8  ___MaxThreads
Module: C:\WATCOM/lib386/os2\clib3r.lib(dosseg)
0000:00001234  __DOSseg__
Module: C:\WATCOM/lib386/os2\clib3r.lib(amblksiz.c)
0002:000000bc  __amblksiz
Module: C:\WATCOM/lib386/os2\clib3r.lib(dllmno32.c)
0001:00003310  DllMain
Module: C:\WATCOM/lib386/os2\clib3r.lib(mem.c)
0001:00003320  __MemAllocator
0001:000033d0  __MemFree
Module: C:\WATCOM/lib386/os2\clib3r.lib(trdlist.c)
0001:00003560  __GetThreadData_
0001:00003670  __ReallocThreadData_
0001:000037e0  __AddThreadData_
0001:00003860  __RemoveThreadData_
0001:000038c0* __ResizeThreadDataList_
0001:00003910  __FreeThreadDataList_
0001:00003940* __ActiveThreads_
Module: C:\WATCOM/lib386/os2\clib3r.lib(mthrdini.c)
0001:00003960  __InitThreadData_
0002:000000c4  ___ThreadDataSize
Module: C:\WATCOM/lib386/os2\clib3r.lib(calloc.c)
0001:00003980  calloc_
Module: C:\WATCOM/lib386/os2\clib3r.lib(register.c)
0001:000039b0  __initthread_
0001:000039c0* _beginthread_
0001:000039d0  _endthread_
0001:000039e0* __RegisterThreadData_
Module: C:\WATCOM/lib386/os2\clib3r.lib(nheapmin.c)
0001:00003a30  _nheapshrink_
0001:00003a30* _nheapmin_
0001:00003a30* _heapmin_
0001:00003a30  _heapshrink_
Module: C:\WATCOM/lib386/os2\clib3r.lib(grownear.c)
0001:00003d00  __ExpandDGROUP_
0002:000000d4  __os2_obj_any_supported
Module: C:\WATCOM/lib386/os2\clib3r.lib(nmemneed.c)
0001:00003d20  __nmemneed_
Module: C:\WATCOM/lib386/os2\clib3r.lib(thrdmax.c)
0001:00003d30  __GETMAXTHREADS
Module: C:\WATCOM/lib386/os2\clib3r.lib(libmno32.c)
0001:00003d40  __dll_initialize_
Module: C:\WATCOM/lib386/os2\clib3r.lib(libterm.c)
0001:00003d50  __dll_terminate_
Module: C:\WATCOM/lib386/os2\clib3r.lib(nrealloc.c)
0001:00003d60* _nrealloc_
0001:00003d60  realloc_
Module: C:\WATCOM/lib386/os2\clib3r.lib(memset.c)
0001:00003e20  memset_
Module: C:\WATCOM/lib386/os2\clib3r.lib(thredo32.c)
0001:00003ee0  __CBeginThread_
0001:00003f80  __CEndThread_
Module: C:\WATCOM/lib386/os2\clib3r.lib(heapen.c)
0001:00003fa0* _heapenable_
0002:000000d8  ___heap_enabled
Module: C:\WATCOM/lib386/os2\clib3r.lib(nmsize.c)
0001:00003fd0  _nmsize_
0001:00003fd0* _msize_
Module: C:\WATCOM/lib386/os2\clib3r.lib(nexpand.c)
0001:00003fe0  _nexpand_
0001:00003fe0* _expand_
0001:00004020+ __HeapManager_expand_
Module: C:\WATCOM/lib386/os2\clib3r.lib(__stos)
0001:000041f0  __STOSB
0001:00004227* __STOSD
Module: C:\WATCOM/lib386/os2\clib3r.lib(chk8087.c)
0001:000042a0  _fpreset_
0001:000042c0* __init_8087_
0001:000042d0  __chk8087_
Module: C:\WATCOM/lib386/os2\clib3r.lib(_8087)
0002:000000dc  __8087
0002:000000dd  __real87
Module: C:\WATCOM/lib386/os2\clib3r.lib(8087cw.c)
0002:000000e0  __8087cw
Module: C:\WATCOM/lib386/os2\clib3r.lib(init8087)
0001:00004320  __x87id


                        +----------------------+
                        |   Imported Symbols   |
                        +----------------------+

Symbol                              Module
======                              ======

_spl1b_ref                          SPL1B
_dos_ref                            DOSCALLS
_pmgre_ref                          PMGRE
_pmgpi_ref                          PMGPI
_pmwin_ref                          PMWIN
_kbd_ref                            KBDCALLS
_vio_ref                            VIOCALLS
_nls_ref                            NLS
_pmshapi_ref                        PMSHAPI
_sesmgr_ref                         SESMGR
_msg_ref                            MSG
DosWrite                            DOSCALLS
DosQuerySysInfo                     DOSCALLS
DosExit                             DOSCALLS
DosGetInfoBlocks                    DOSCALLS
DosQueryModuleName                  DOSCALLS
DosCloseMutexSem                    DOSCALLS
DosReleaseMutexSem                  DOSCALLS
DosCreateMutexSem                   DOSCALLS
DosRequestMutexSem                  DOSCALLS
DosLoadModule                       DOSCALLS
DosQueryProcAddr                    DOSCALLS
DosOpen                             DOSCALLS
DosClose                            DOSCALLS
DosFreeMem                          DOSCALLS
DosAllocMem                         DOSCALLS
DosPostEventSem                     DOSCALLS
DosCreateEventSem                   DOSCALLS
DosCreateThread                     DOSCALLS
DosCloseEventSem                    DOSCALLS
DosWaitEventSem                     DOSCALLS
DosDevConfig                        DOSCALLS


                        +--------------------+
                        |   Libraries Used   |
                        +--------------------+

C:\WATCOM/lib386/os2\clib3r.lib
C:\WATCOM/lib386/os2\os2386.lib


                        +-----------------------+
                        |   Linker Statistics   |
                        +-----------------------+

Stack size:  0000 (0.)
Memory size:  4c83 (19587.)
Link time: 00:04.53
