** EXPERIMENTAL (HLL) ** Open Watcom Linker Version 2.0.1
Portions Copyright (c) 1985-2002 Sybase, Inc. All Rights Reserved.
Created on:       26/07/03 22:24:19
Executable Image: PMGPI.DLL
creating an OS/2 32-bit dynamic link library


                        +------------+
                        |   Groups   |
                        +------------+

Group                           Address              Size
=====                           =======              ====

DGROUP                          0002:00000000        00003d6c



                        +--------------+
                        |   Segments   |
                        +--------------+

Segment                Class          Group          Address         Size
=======                =====          =====          =======         ====

_TEXT                  CODE           AUTO           0001:00000000   00001b5e
CONST                  DATA           DGROUP         0002:00000000   00001d64
CONST2                 DATA           DGROUP         0002:00001d64   00000000
_DATA                  DATA           DGROUP         0002:00001d64   00000008
_BSS                   BSS            DGROUP         0002:00001d6c   00002000


                        +----------------+
                        |   Memory Map   |
                        +----------------+

* = unreferenced symbol
+ = symbol only referenced locally

Address        Symbol
=======        ======

Module: PMGPI.OBJ(F:\Projects\cWarp\src\PM\PMGPI_STUB\PMGPI.C)
0001:000000b1  DEVOPENDC
0001:000000c1  DEVCLOSEDC
0001:000000c8  DEVPOSTDEVICEMODES
0001:000000cf  DEVESCAPE
0001:000000d6  DEVQUERYHARDCOPYCAPS
0001:00000214  DEVQUERYCAPS
0001:0000026a  DEVQUERYDEVICENAMES
0001:00000274  DEVSTDOPEN
0001:0000027e  DevPostEscapeStub
0001:00000288  GPICREATEPS
0001:00000292  GPIQUERYPS
0001:0000029c  GPIDESTROYPS
0001:000002a6  GPIRESETPS
0001:000002b0  GPISAVEPS
0001:000002ba  GPIRESTOREPS
0001:000002c4  GPIASSOCIATE
0001:000002ce  GPIERRORSEGMENTDATA
0001:000002d8  GPIERASE
0001:000002e2  GPISETDRAWCONTROL
0001:000002ec  GPIQUERYDRAWCONTROL
0001:000002ff  GPIDRAWCHAIN
0001:00000309  GPIDRAWFROM
0001:00000313  GPIDRAWSEGMENT
0001:0000031d  GPISETSTOPDRAW
0001:00000327  GPIQUERYSTOPDRAW
0001:0000032e  GPIREMOVEDYNAMICS
0001:00000338  GPIDRAWDYNAMICS
0001:00000342  GPISETDRAWINGMODE
0001:0000034c  GPIQUERYDRAWINGMODE
0001:0000035f  GPIGETDATA
0001:00000369  GPIPUTDATA
0001:00000373  GPISETPICKAPERTURESIZE
0001:0000037d  GPIQUERYPICKAPERTURESIZE
0001:00000387  GPISETPICKAPERTUREPOSITION
0001:00000391  GPIQUERYPICKAPERTUREPOSITION
0001:0000039b  GPISETTAG
0001:000003a5  GPIQUERYTAG
0001:000003af  GPICORRELATECHAIN
0001:000003b9  GPICORRELATEFROM
0001:000003c3  GPICORRELATESEGMENT
0001:000003cd  GPIRESETBOUNDARYDATA
0001:000003d7  GPIQUERYBOUNDARYDATA
0001:000003e1  GPIOPENSEGMENT
0001:000003eb  GPICLOSESEGMENT
0001:000003f5  GPIDELETESEGMENT
0001:000003ff  GPIDELETESEGMENTS
0001:00000409  GPIQUERYSEGMENTNAMES
0001:00000413  GPISETINITIALSEGMENTATTRS
0001:0000041d  GPIQUERYINITIALSEGMENTATTRS
0001:00000427  GPISETSEGMENTATTRS
0001:00000431  GPIQUERYSEGMENTATTRS
0001:0000043b  GPISETSEGMENTPRIORITY
0001:00000445  GPIQUERYSEGMENTPRIORITY
0001:0000044f  GPISETEDITMODE
0001:00000459  GPIQUERYEDITMODE
0001:00000463  GPISETELEMENTPOINTER
0001:0000046d  GPIQUERYELEMENTPOINTER
0001:00000477  GPIOFFSETELEMENTPOINTER
0001:00000481  GPIDELETEELEMENT
0001:0000048b  GPIDELETEELEMENTRANGE
0001:00000495  GPILABEL
0001:0000049f  GPISETELEMENTPOINTERATLABEL
0001:000004a9  GPIDELETEELEMENTSBETWEENLABELS
0001:000004b3  GPIQUERYELEMENTTYPE
0001:000004bd  GPIQUERYELEMENT
0001:000004c7  GPIELEMENT
0001:000004d1  GPIBEGINELEMENT
0001:000004db  GPIENDELEMENT
0001:000004e5  GPISETSEGMENTTRANSFORMMATRIX
0001:000004ef  GPIQUERYSEGMENTTRANSFORMMATRIX
0001:000004f9  GPISETMODELTRANSFORMMATRIX
0001:00000503  GPIQUERYMODELTRANSFORMMATRIX
0001:0000050d  GPICALLSEGMENTMATRIX
0001:00000517  GPISETDEFAULTVIEWMATRIX
0001:00000521  GPIQUERYDEFAULTVIEWMATRIX
0001:0000052b  GPISETPAGEVIEWPORT
0001:00000535  GPIQUERYPAGEVIEWPORT
0001:0000053f  GPISETVIEWINGTRANSFORMMATRIX
0001:00000549  GPIQUERYVIEWINGTRANSFORMMATRIX
0001:00000553  GPISETGRAPHICSFIELD
0001:0000055d  GPIQUERYGRAPHICSFIELD
0001:00000567  GPISETVIEWINGLIMITS
0001:00000571  GPIQUERYVIEWINGLIMITS
0001:0000057b  GPICONVERT
0001:00000585  GPICONVERTWITHMATRIX
0001:0000058f  GPITRANSLATE
0001:00000599  GPISCALE
0001:000005a3  GPIROTATE
0001:000005ad  GPISETATTRMODE
0001:000005b7  GPIQUERYATTRMODE
0001:000005c1  GPIPOP
0001:000005cb  GPISETATTRS
0001:000005d5  GPIQUERYATTRS
0001:000005df  GPICREATELOGCOLORTABLE
0001:000005e9  GPIREALIZECOLORTABLE
0001:000005f3  GPIUNREALIZECOLORTABLE
0001:000005fd  GPIQUERYCOLORDATA
0001:00000607  GPIQUERYLOGCOLORTABLE
0001:00000611  GPIQUERYREALCOLORS
0001:0000061b  GPIQUERYNEARESTCOLOR
0001:00000625  GPIQUERYCOLORINDEX
0001:0000062f  GPIQUERYRGBCOLOR
0001:00000639  GPISETCOLOR
0001:00000643  GPIQUERYCOLOR
0001:00000656  GPISETBACKCOLOR
0001:00000660  GPIQUERYBACKCOLOR
0001:0000066a  GPISETMIX
0001:00000674  GPIQUERYMIX
0001:00000687  GPISETBACKMIX
0001:00000691  GPIQUERYBACKMIX
0001:000006a4  GPISETLINETYPE
0001:000006ae  GPIQUERYLINETYPE
0001:000006b8  GPISETLINEWIDTH
0001:000006c2  GPIQUERYLINEWIDTH
0001:000006cc  GPISETLINEWIDTHGEOM
0001:000006d6  GPIQUERYLINEWIDTHGEOM
0001:000006e0  GPISETLINEEND
0001:000006ea  GPIQUERYLINEEND
0001:000006f4  GPISETLINEJOIN
0001:000006fe  GPIQUERYLINEJOIN
0001:00000708  GPISETCURRENTPOSITION
0001:00000712  GPIQUERYCURRENTPOSITION
0001:0000071c  GPIMOVE
0001:00000726  GPILINE
0001:00000730  GPIPOLYLINE
0001:0000073a  GPIPOLYLINEDISJOINT
0001:00000744  GPIBOX
0001:0000074e  GPIPTVISIBLE
0001:00000758  GPIRECTVISIBLE
0001:00000762  GPISETARCPARAMS
0001:0000076c  GPIQUERYARCPARAMS
0001:00000776  GPIPOINTARC
0001:00000780  GPIFULLARC
0001:0000078a  GPIPARTIALARC
0001:00000794  GPIPOLYFILLET
0001:0000079e  GPIPOLYFILLETSHARP
0001:000007a8  GPIPOLYSPLINE
0001:000007b2  GPISETBITMAPID
0001:000007bc  GPIQUERYBITMAPHANDLE
0001:000007c6  GPISETPATTERNSET
0001:000007d0  GPIQUERYPATTERNSET
0001:000007da  GPISETPATTERN
0001:000007e4  GPIQUERYPATTERN
0001:000007ee  GPISETPATTERNREFPOINT
0001:000007f8  GPIQUERYPATTERNREFPOINT
0001:00000802  GPIBEGINAREA
0001:0000080c  GPIENDAREA
0001:00000816  GPILOADFONTS
0001:00000820  GPIUNLOADFONTS
0001:0000082a  GPICREATELOGFONT
0001:00000834  GPIDELETESETID
0001:0000083e  GPIQUERYNUMBERSETIDS
0001:00000848  GPIQUERYSETIDS
0001:00000852  GPIQUERYFONTS
0001:0000085c  GPIQUERYFONTMETRICS
0001:00000866  GPIQUERYKERNINGPAIRS
0001:00000870  GPIQUERYWIDTHTABLE
0001:0000087a  GPISETCP
0001:00000884  GPIQUERYCP
0001:0000088e  GPIQUERYTEXTBOX
0001:00000898  GPIQUERYDEFCHARBOX
0001:000008a2  GPIQUERYFONTFILEDESCRIPTIONS
0001:000008ac  GPISETCHARSET
0001:000008b6  GPIQUERYCHARSET
0001:000008c0  GPISETCHARBOX
0001:000008ca  GPIQUERYCHARBOX
0001:000008d4  GPISETCHARANGLE
0001:000008de  GPIQUERYCHARANGLE
0001:000008e8  GPISETCHARSHEAR
0001:000008f2  GPIQUERYCHARSHEAR
0001:000008fc  GPISETCHARDIRECTION
0001:00000906  GPIQUERYCHARDIRECTION
0001:00000910  GPISETCHARMODE
0001:0000091a  GPIQUERYCHARMODE
0001:00000924  GPISETCHAREXTRA
0001:0000092e  GPIQUERYCHAREXTRA
0001:00000938  GPISETCHARBREAKEXTRA
0001:00000942  GPIQUERYCHARBREAKEXTRA
0001:0000094c  GPICHARSTRING
0001:00000956  GPICHARSTRINGAT
0001:00000960  GPICHARSTRINGPOS
0001:0000096a  GPICHARSTRINGPOSAT
0001:00000974  GPIQUERYCHARSTRINGPOS
0001:0000097e  GPIQUERYCHARSTRINGPOSAT
0001:00000988  GPISETMARKERSET
0001:00000992  GPIQUERYMARKERSET
0001:0000099c  GPISETMARKER
0001:000009a6  GPIQUERYMARKER
0001:000009b0  GPISETMARKERBOX
0001:000009ba  GPIQUERYMARKERBOX
0001:000009c4  GPIMARKER
0001:000009ce  GPIPOLYMARKER
0001:000009d8  GPIIMAGE
0001:000009e2  GPICREATEBITMAP
0001:000009ec  GPIDELETEBITMAP
0001:000009f6  GPISETBITMAP
0001:00000a00  GPISETBITMAPDIMENSION
0001:00000a0a  GPIQUERYBITMAPDIMENSION
0001:00000a14  GPIQUERYDEVICEBITMAPFORMATS
0001:00000a1e  GPIQUERYBITMAPPARAMETERS
0001:00000a28  GPIQUERYBITMAPINFOHEADER
0001:00000a32  GPISETBITMAPBITS
0001:00000a3c  GPIQUERYBITMAPBITS
0001:00000a46  GPIBITBLT
0001:00000a50  GPIWCBITBLT
0001:00000a5a  GPIDRAWBITS
0001:00000a64  GPISETPEL
0001:00000a6e  GPIQUERYPEL
0001:00000a78  GPIFLOODFILL
0001:00000a82  GPICREATEREGION
0001:00000a8c  GPISETREGION
0001:00000a96  GPIDESTROYREGION
0001:00000aa0  GPICOMBINEREGION
0001:00000aaa  GPIEQUALREGION
0001:00000ab4  GPIOFFSETREGION
0001:00000abe  GPIPTINREGION
0001:00000ac8  GPIRECTINREGION
0001:00000ad2  GPIQUERYREGIONBOX
0001:00000adc  GPIQUERYREGIONRECTS
0001:00000ae6  GPISETCLIPREGION
0001:00000af0  GPIQUERYCLIPREGION
0001:00000afa  GPIQUERYCLIPBOX
0001:00000b04  GPIINTERSECTCLIPRECTANGLE
0001:00000b0e  GPIEXCLUDECLIPRECTANGLE
0001:00000b18  GPIOFFSETCLIPREGION
0001:00000b22  GPIPAINTREGION
0001:00000b2c  GPIFRAMEREGION
0001:00000b36  GPILOADMETAFILE
0001:00000b40  GPICOPYMETAFILE
0001:00000b4a  GPIPLAYMETAFILE
0001:00000b54  GPISAVEMETAFILE
0001:00000b5e  GPIDELETEMETAFILE
0001:00000b68  GPIQUERYMETAFILEBITS
0001:00000b72  GPISETMETAFILEBITS
0001:00000b7c  GPIQUERYMETAFILELENGTH
0001:00000b86  GPIOPENMETAFILE
0001:00000b90  GPICLOSEMETAFILE
0001:00000b9a  GPIACCESSMETAFILE
0001:00000ba4  GPICOMMENT
0001:00000bae  GPISETCLIPPATH
0001:00000bb8  GPIBEGINPATH
0001:00000bc2  GPIENDPATH
0001:00000bcc  GPICLOSEFIGURE
0001:00000bd6  GPIMODIFYPATH
0001:00000be0  GPIFILLPATH
0001:00000bea  GPISTROKEPATH
0001:00000bf4  GPIOUTLINEPATH
0001:00000bfe  GPIPATHTOREGION
0001:00000c08  GPIQUERYDEVICE
0001:00000c12  GPIVECTORSYMBOL
0001:00000c1c  GPICONVPSH
0001:00000c26  GPISETPS
0001:00000c30  GPISETDCOWNER
0001:00000c3a  GPISETBITMAPOWNER
0001:00000c44  GPISETREGIONOWNER
0001:00000c4e  GPIINSTALLIFIFONT
0001:00000c58  GPISETDEFTAG
0001:00000c62  GPIQUERYDEFTAG
0001:00000c6c  GPISETDEFATTRS
0001:00000c76  GPIQUERYDEFATTRS
0001:00000c80  GPISETDEFVIEWINGLIMITS
0001:00000c8a  GPIQUERYDEFVIEWINGLIMITS
0001:00000c94  GPISETDEFARCPARAMS
0001:00000c9e  GPIQUERYDEFARCPARAMS
0001:00000ca8  GPICREATEPALETTE
0001:00000cb2  GPIDELETEPALETTE
0001:00000cbc  GPISELECTPALETTE
0001:00000cc6  GPIANIMATEPALETTE
0001:00000cd0  GPISETPALETTEENTRIES
0001:00000cda  GPIQUERYPALETTE
0001:00000ce4  GPIQUERYPALETTEINFO
0001:00000cee  GPILOADPUBLICFONTS
0001:00000cf8  GPIUNLOADPUBLICFONTS
0001:00000d02  GPIQUERYLOGICALFONT
0001:00000d0c  GPIQUERYFACESTRING
0001:00000d16  GPIQUERYFONTACTION
0001:00000d20  GPISUSPENDPLAY
0001:00000d2a  GPIRESUMEPLAY
0001:00000d34  MTSTARTREADREQUEST
0001:00000d3e  MTENDREADREQUEST
0001:00000d48  MTGETDESCRIPTION
0001:00000d52  MTGETCODEPAGE
0001:00000d5c  MTGETLCT
0001:00000d66  MTGETGDDINFO
0001:00000d70  MTGETFIRSTFONT
0001:00000d7a  MTGETNEXTFONT
0001:00000d84  MTGETFIRSTGRAPHICSDATA
0001:00000d8e  MTGETNEXTGRAPHICSDATA
0001:00000d98  SEGSGWOPENSEGMENTWINDOW
0001:00000da2  SEGSGWNEWPARTDATA
0001:00000dac  SEGSGWNEXTORDERF
0001:00000db6  GPIMTASSOCIATE
0001:00000dc0  GPIMTDISASSOCIATE
0001:00000dca  FMTCONVERTGOCAPOLY
0001:00000dd4  GPIBEGININKPATH
0001:00000dde  GPIENDINKPATH
0001:00000de8  GPISTROKEINKPATH
0001:00000df2  DSPINITSYSTEMDRIVERNAME
0001:00000dfc  PMGPIORD351
0001:00000e06  PMGPIORD352
0001:00000e10  PMGPIORD353
0001:00000e1a  PMGPIORD354
0001:00000e24  PMGPIORD355
0001:00000e2e  PMGPIORD356
0001:00000e38  PMGPIORD357
0001:00000e42  PMGPIORD358
0001:00000e4c  PMGPIORD359
0001:00000e56  PMGPIORD360
0001:00000e60  PMGPIORD361
0001:00000e6a  PMGPIORD362
0001:00000e74  PMGPIORD363
0001:00000e7e  PMGPIORD364
0001:00000e88  PMGPIORD365
0001:00000e92  PMGPIORD366
0001:00000e9c  PMGPIORD367
0001:00000ea6  PMGPIORD368
0001:00000eb0  PMGPIORD369
0001:00000eba  PMGPIORD370
0001:00000ec4  PMGPIORD371
0001:00000ece  PMGPIORD372
0001:00000ed8  PMGPIORD373
0001:00000ee2  PMGPIORD374
0001:00000eec  PMGPIORD375
0001:00000ef6  PMGPIORD376
0001:00000f00  PMGPIORD377
0001:00000f0a  PMGPIORD378
0001:00000f14  PMGPIORD379
0001:00000f1e  PMGPIORD380
0001:00000f28  PMGPIORD381
0001:00000f32  PMGPIORD382
0001:00000f3c  PMGPIORD383
0001:00000f46  PMGPIORD384
0001:00000f50  PMGPIORD385
0001:00000f5a  PMGPIORD386
0001:00000f64  PMGPIORD387
0001:00000f6e  PMGPIORD388
0001:00000f78  PMGPIORD389
0001:00000f82  PMGPIORD390
0001:00000f8c  PMGPIORD391
0001:00000f96  PMGPIORD392
0001:00000fa0  PMGPIORD393
0001:00000faa  PMGPIORD394
0001:00000fb4  PMGPIORD395
0001:00000fbe  PMGPIORD396
0001:00000fc8  PMGPIORD397
0001:00000fd2  PMGPIORD398
0001:00000fdc  PMGPIORD400
0001:00000fe6  PMGPIORD401
0001:00000ff0  PMGPIORD402
0001:00000ffa  PMGPIORD403
0001:00001004  PMGPIORD404
0001:0000100e  PMGPIORD405
0001:00001018  PMGPIORD406
0001:00001022  PMGPIORD407
0001:0000102c  PMGPIORD408
0001:00001036  PMGPIORD409
0001:00001040  PMGPIORD411
0001:0000104a  PMGPIORD412
0001:00001054  PMGPIORD413
0001:0000105e  PMGPIORD414
0001:00001068  PMGPIORD415
0001:00001072  PMGPIORD416
0001:0000107c  PMGPIORD417
0001:00001086  PMGPIORD418
0001:00001090  PMGPIORD419
0001:0000109a  PMGPIORD420
0001:000010a4  PMGPIORD421
0001:000010ae  PMGPIORD422
0001:000010b8  PMGPIORD423
0001:000010c2  PMGPIORD424
0001:000010cc  PMGPIORD425
0001:000010d6  PMGPIORD426
0001:000010e0  PMGPIORD427
0001:000010ea  PMGPIORD428
0001:000010f4  PMGPIORD429
0001:000010fe  PMGPIORD430
0001:00001108  PMGPIORD431
0001:00001112  PMGPIORD432
0001:0000111c  PMGPIORD433
0001:00001126  PMGPIORD434
0001:00001130  PMGPIORD435
0001:0000113a  PMGPIORD436
0001:00001144  PMGPIORD437
0001:0000114e  PMGPIORD438
0001:00001158  PMGPIORD439
0001:00001162  PMGPIORD440
0001:0000116c  PMGPIORD441
0001:00001176  PMGPIORD442
0001:00001180  PMGPIORD443
0001:0000118a  PMGPIORD444
0001:00001194  PMGPIORD445
0001:0000119e  PMGPIORD446
0001:000011a8  PMGPIORD447
0001:000011b2  PMGPIORD448
0001:000011bc  PMGPIORD449
0001:000011c6  PMGPIORD450
0001:000011d0  PMGPIORD451
0001:000011da  PMGPIORD452
0001:000011e4  PMGPIORD453
0001:000011ee  PMGPIORD454
0001:000011f8  PMGPIORD455
0001:00001202  PMGPIORD456
0001:0000120c  PMGPIORD457
0001:00001216  PMGPIORD458
0001:00001220  PMGPIORD459
0001:0000122a  PMGPIORD460
0001:00001234  PMGPIORD461
0001:0000123e  PMGPIORD462
0001:00001248  PMGPIORD463
0001:00001252  PMGPIORD464
0001:0000125c  PMGPIORD465
0001:00001266  PMGPIORD466
0001:00001270  PMGPIORD467
0001:0000127a  PMGPIORD468
0001:00001284  PMGPIORD469
0001:0000128e  PMGPIORD470
0001:00001298  PMGPIORD471
0001:000012a2  PMGPIORD472
0001:000012ac  PMGPIORD473
0001:000012b6  PMGPIORD474
0001:000012c0  PMGPIORD475
0001:000012ca  PMGPIORD476
0001:000012d4  PMGPIORD477
0001:000012de  PMGPIORD478
0001:000012e8  PMGPIORD479
0001:000012f2  PMGPIORD480
0001:000012fc  PMGPIORD481
0001:00001306  PMGPIORD482
0001:00001310  PMGPIORD483
0001:0000131a  PMGPIORD484
0001:00001324  PMGPIORD485
0001:0000132e  PMGPIORD486
0001:00001338  PMGPIORD487
0001:00001342  PMGPIORD488
0001:0000134c  PMGPIORD489
0001:00001356  PMGPIORD490
0001:00001360  PMGPIORD491
0001:0000136a  PMGPIORD492
0001:00001374  PMGPIORD494
0001:0000137e  PMGPIORD495
0001:00001388  PMGPIORD496
0001:00001392  PMGPIORD497
0001:0000139c  PMGPIORD498
0001:000013a6  PMGPIORD499
0001:000013b0  PMGPIORD500
0001:000013ba  PMGPIORD501
0001:000013c4  PMGPIORD502
0001:000013ce  PMGPIORD503
0001:000013d8  PMGPIORD504
0001:000013e2  PMGPIORD505
0001:000013ec  PMGPIORD506
0001:000013f6  PMGPIORD507
0001:00001400  PMGPIORD508
0001:0000140a  PMGPIORD509
0001:00001414  PMGPIORD510
0001:0000141e  PMGPIORD511
0001:00001428  PMGPIORD512
0001:00001432  PMGPIORD513
0001:0000143c  PMGPIORD514
0001:00001446  PMGPIORD515
0001:00001450  PMGPIORD516
0001:0000145a  PMGPIORD517
0001:00001464  PMGPIORD518
0001:0000146e  PMGPIORD519
0001:00001478  PMGPIORD520
0001:00001482  PMGPIORD521
0001:0000148c  PMGPIORD522
0001:00001496  PMGPIORD523
0001:000014a0  PMGPIORD524
0001:000014aa  PMGPIORD525
0001:000014b4  PMGPIORD526
0001:000014be  PMGPIORD527
0001:000014c8  PMGPIORD528
0001:000014d2  PMGPIORD529
0001:000014dc  PMGPIORD530
0001:000014e6  PMGPIORD531
0001:000014f0  PMGPIORD532
0001:000014fa  PMGPIORD533
0001:00001504  PMGPIORD534
0001:0000150e  PMGPIORD535
0001:00001518  PMGPIORD536
0001:00001522  PMGPIORD537
0001:0000152c  PMGPIORD538
0001:00001536  PMGPIORD539
0001:00001540  PMGPIORD540
0001:0000154a  PMGPIORD541
0001:00001554  PMGPIORD542
0001:0000155e  PMGPIORD543
0001:00001568  PMGPIORD544
0001:00001572  PMGPIORD545
0001:0000157c  PMGPIORD546
0001:00001586  PMGPIORD547
0001:00001590  PMGPIORD548
0001:0000159a  PMGPIORD549
0001:000015a4  PMGPIORD550
0001:000015ae  PMGPIORD551
0001:000015b8  PMGPIORD552
0001:000015c2  PMGPIORD553
0001:000015cc  PMGPIORD554
0001:000015d6  PMGPIORD555
0001:000015e0  PMGPIORD557
0001:000015ea  PMGPIORD558
0001:000015f4  PMGPIORD559
0001:000015fe  PMGPIORD560
0001:00001608  PMGPIORD561
0001:00001612  PMGPIORD562
0001:0000161c  PMGPIORD563
0001:00001626  PMGPIORD564
0001:00001630  PMGPIORD565
0001:0000163a  PMGPIORD566
0001:00001644  PMGPIORD567
0001:0000164e  PMGPIORD568
0001:00001658  PMGPIORD569
0001:00001662  PMGPIORD570
0001:0000166c  PMGPIORD571
0001:00001676  PMGPIORD572
0001:00001680  PMGPIORD573
0001:0000168a  PMGPIORD574
0001:00001694  PMGPIORD575
0001:0000169e  PMGPIORD576
0001:000016a8  PMGPIORD577
0001:000016b2  PMGPIORD578
0001:000016bc  PMGPIORD579
0001:000016c6  PMGPIORD580
0001:000016d0  PMGPIORD581
0001:000016da  PMGPIORD582
0001:000016e4  PMGPIORD583
0001:000016ee  PMGPIORD584
0001:000016f8  PMGPIORD585
0001:00001702  PMGPIORD586
0001:0000170c  PMGPIORD587
0001:00001716  PMGPIORD588
0001:00001720  PMGPIORD589
0001:0000172a  PMGPIORD590
0001:00001734  PMGPIORD591
0001:0000173e  PMGPIORD592
0001:00001748  PMGPIORD593
0001:00001752  PMGPIORD594
0001:0000175c  PMGPIORD595
0001:00001766  PMGPIORD596
0001:00001770  PMGPIORD597
0001:0000177a  PMGPIORD598
0001:00001784  PMGPIORD599
0001:0000178e  PMGPIORD601
0001:00001798  PMGPIORD602
0001:000017a2  PMGPIORD603
0001:000017ac  PMGPIORD604
0001:000017b6  PMGPIORD605
0001:000017c0  PMGPIORD606
0001:000017ca  PMGPIORD607
0001:000017d4  PMGPIORD608
0001:000017de  PMGPIORD609
0001:000017e8  PMGPIORD610
0001:000017f2  PMGPIORD611
0001:000017fc  PMGPIORD612
0001:00001806  PMGPIORD613
0001:00001810  PMGPIORD614
0001:0000181a  PMGPIORD615
0001:00001824  PMGPIORD616
0001:0000182e  PMGPIORD617
0001:00001838  PMGPIORD618
0001:00001842  PMGPIORD619
0001:0000184c  PMGPIORD620
0001:00001856  PMGPIORD621
0001:00001860  PMGPIORD622
0001:0000186a  PMGPIORD623
0001:00001874  PMGPIORD624
0001:0000187e  PMGPIORD625
0001:00001888  PMGPIORD626
0001:00001892  PMGPIORD627
0001:0000189c  PMGPIORD628
0001:000018a6  PMGPIORD629
0001:000018b0  PMGPIORD630
0001:000018ba  PMGPIORD631
0001:000018c4  PMGPIORD632
0001:000018ce  PMGPIORD633
0001:000018d8  PMGPIORD634
0001:000018e2  PMGPIORD635
0001:000018ec  PMGPIORD636
0001:000018f6  PMGPIORD637
0001:00001900  PMGPIORD638
0001:0000190a  PMGPIORD639
0001:00001914  PMGPIORD640
0001:0000191e  PMGPIORD641
0001:00001928  PMGPIORD642
0001:00001932  PMGPIORD643
0001:0000193c  PMGPIORD644
0001:00001946  PMGPIORD645
0001:00001950  PMGPIORD646
0001:0000195a  PMGPIORD648
0001:00001964  PMGPIORD649
0001:0000196e  PMGPIORD650
0001:00001978  PMGPIORD651
0001:00001982  PMGPIORD652
0001:0000198c  PMGPIORD653
0001:00001996  PMGPIORD654
0001:000019a0  PMGPIORD655
0001:000019aa  PMGPIORD656
0001:000019ce  PMGPIORD657
0001:000019d8  PMGPIORD658
0001:000019e2  PMGPIORD659
0001:000019ec  PMGPIORD660
0001:000019f6  PMGPIORD661
0001:00001a00  PMGPIORD662
0001:00001a0a  PMGPIORD663
0001:00001a14  PMGPIORD664
0001:00001a1e  PMGPIORD665
0001:00001a28  PMGPIORD666
0001:00001a32  PMGPIORD667
0001:00001a3c  PMGPIORD668
0001:00001a46  PMGPIORD669
0001:00001a50  PMGPIORD700
0001:00001a5a  PMGPIORD701
0001:00001a64  PMGPIORD703
0001:00001a6e  PMGPIORD704
0001:00001a78  PMGPIORD705
0001:00001a82  PMGPIORD706
0001:00001a8c  PMGPIORD707
0001:00001a96  PMGPIORD710
0001:00001aa0  PMGPIORD712
0001:00001aaa  PMGPIORD713
0001:00001ab4  PMGPIORD714
0001:00001abe  PMGPIORD715
0001:00001ac8  PMGPIORD716
0001:00001ad2  PMGPIORD717
0001:00001adc  PMGPIORD718
0001:00001ae6  PMGPIORD719
0001:00001af0  PMGPIORD720
0001:00001afa  PMGPIORD721
0001:00001b04  PMGPIORD722
0001:00001b0e  PMGPIORD723
0001:00001b18  PMGPIORD724
0001:00001b22  PMGPIORD725
0001:00001b2c  PMGPIORD726
0001:00001b36  PMGPIORD727
0001:00001b40  PMGPIORD728
0001:00001b4a  PMGPIORD730
0001:00001b54  PMGPIORD399


                        +----------------------+
                        |   Imported Symbols   |
                        +----------------------+

Symbol                              Module
======                              ======

_pmgre_ref                          PMGRE
_pmwin_ref                          PMWIN
_dos_ref                            DOSCALLS
_vio_ref                            VIOCALLS
DosOpen                             DOSCALLS
DosSetFilePtr                       DOSCALLS
DosWrite                            DOSCALLS
DosClose                            DOSCALLS


                        +--------------------+
                        |   Libraries Used   |
                        +--------------------+

C:\WATCOM/lib386/os2\os2386.lib


                        +-----------------------+
                        |   Linker Statistics   |
                        +-----------------------+

Stack size:  0000 (0.)
Memory size:  58ca (22730.)
Link time: 00:03.84
